; Function Attrs: nounwind uwtable
define internal fastcc range(i32 -99, -3) i32 @IDAICFailFlag(ptr noundef nonnull %0, i32 noundef range(i32 1, 0) %1) unnamed_addr #0 {
  switch i32 %1, label %13 [
    i32 -8, label %3
    i32 -12, label %4
    i32 -6, label %5
    i32 -7, label %6
    i32 1, label %7
    i32 2, label %8
    i32 3, label %9
    i32 4, label %10
    i32 5, label %11
    i32 -24, label %12
  ]

3:                                                ; preds = %2
  tail call void (ptr, i32, i32, ptr, ptr, ptr, ...) @IDAProcessError(ptr noundef nonnull %0, i32 noundef -8, i32 noundef 1380, ptr noundef nonnull @__func__.IDAICFailFlag, ptr noundef nonnull @.str, ptr noundef nonnull @.str.7) #3
  br label %13

4:                                                ; preds = %2
  tail call void (ptr, i32, i32, ptr, ptr, ptr, ...) @IDAProcessError(ptr noundef nonnull %0, i32 noundef -12, i32 noundef 1385, ptr noundef nonnull @__func__.IDAICFailFlag, ptr noundef nonnull @.str, ptr noundef nonnull @.str.8) #3
  br label %13

5:                                                ; preds = %2
  tail call void (ptr, i32, i32, ptr, ptr, ptr, ...) @IDAProcessError(ptr noundef nonnull %0, i32 noundef -6, i32 noundef 1390, ptr noundef nonnull @__func__.IDAICFailFlag, ptr noundef nonnull @.str, ptr noundef nonnull @.str.9) #3
  br label %13

6:                                                ; preds = %2
  tail call void (ptr, i32, i32, ptr, ptr, ptr, ...) @IDAProcessError(ptr noundef nonnull %0, i32 noundef -7, i32 noundef 1395, ptr noundef nonnull @__func__.IDAICFailFlag, ptr noundef nonnull @.str, ptr noundef nonnull @.str.10) #3
  br label %13

7:                                                ; preds = %2
  tail call void (ptr, i32, i32, ptr, ptr, ptr, ...) @IDAProcessError(ptr noundef nonnull %0, i32 noundef -14, i32 noundef 1400, ptr noundef nonnull @__func__.IDAICFailFlag, ptr noundef nonnull @.str, ptr noundef nonnull @.str.11) #3
  br label %13

8:                                                ; preds = %2
  tail call void (ptr, i32, i32, ptr, ptr, ptr, ...) @IDAProcessError(ptr noundef nonnull %0, i32 noundef -11, i32 noundef 1405, ptr noundef nonnull @__func__.IDAICFailFlag, ptr noundef nonnull @.str, ptr noundef nonnull @.str.12) #3
  br label %13

9:                                                ; preds = %2
  tail call void (ptr, i32, i32, ptr, ptr, ptr, ...) @IDAProcessError(ptr noundef nonnull %0, i32 noundef -13, i32 noundef 1410, ptr noundef nonnull @__func__.IDAICFailFlag, ptr noundef nonnull @.str, ptr noundef nonnull @.str.13) #3
  br label %13

10:                                               ; preds = %2
  tail call void (ptr, i32, i32, ptr, ptr, ptr, ...) @IDAProcessError(ptr noundef nonnull %0, i32 noundef -4, i32 noundef 1415, ptr noundef nonnull @__func__.IDAICFailFlag, ptr noundef nonnull @.str, ptr noundef nonnull @.str.14) #3
  br label %13

11:                                               ; preds = %2
  tail call void (ptr, i32, i32, ptr, ptr, ptr, ...) @IDAProcessError(ptr noundef nonnull %0, i32 noundef -4, i32 noundef 1420, ptr noundef nonnull @__func__.IDAICFailFlag, ptr noundef nonnull @.str, ptr noundef nonnull @.str.14) #3
  br label %13

12:                                               ; preds = %2
  tail call void (ptr, i32, i32, ptr, ptr, ptr, ...) @IDAProcessError(ptr noundef nonnull %0, i32 noundef -24, i32 noundef 1425, ptr noundef nonnull @__func__.IDAICFailFlag, ptr noundef nonnull @.str, ptr noundef nonnull @.str.15) #3
  br label %13

13:                                               ; preds = %2, %12, %11, %10, %9, %8, %7, %6, %5, %4, %3
  %.0 = phi i32 [ -24, %12 ], [ -4, %11 ], [ -4, %10 ], [ -13, %9 ], [ -11, %8 ], [ -14, %7 ], [ -7, %6 ], [ -6, %5 ], [ -12, %4 ], [ -8, %3 ], [ -99, %2 ]
  ret i32 %.0
}